target datalayout = "e-m:e-p270:32:32-p271:32:32-p272:64:64-i64:64-i128:128-f80:128-n8:16:32:64-S128"
target triple = "x86_64-pc-linux-gnu"

%struct.Channel = type { i32, i32, [4 x i32], %struct.QMFAnalysis, [4 x %struct.Quantize], [4 x %struct.InvertQuantize], [4 x %struct.Prediction] }
%struct.QMFAnalysis = type { [2 x %struct.FilterSignal], [2 x [2 x %struct.FilterSignal]] }
%struct.FilterSignal = type { i32, [32 x i32] }
%struct.Quantize = type { i32, i32, i32 }
%struct.InvertQuantize = type { i32, i32, i32 }
%struct.Prediction = type { [2 x i32], [2 x i32], [24 x i32], i32, [48 x i32], i32, i32, i32 }

; Function Attrs: alwaysinline nounwind uwtable
define internal void @aptx_update_codeword_history(ptr noundef %0) #2 {
  %2 = alloca ptr, align 8
  %3 = alloca i32, align 4
  store ptr %0, ptr %2, align 8, !tbaa !4
  call void @llvm.lifetime.start.p0(i64 4, ptr %3) #5
  %4 = load ptr, ptr %2, align 8, !tbaa !4
  %5 = getelementptr inbounds nuw %struct.Channel, ptr %4, i32 0, i32 4
  %6 = getelementptr inbounds [4 x %struct.Quantize], ptr %5, i64 0, i64 0
  %7 = getelementptr inbounds nuw %struct.Quantize, ptr %6, i32 0, i32 0
  %8 = load i32, ptr %7, align 4, !tbaa !18
  %9 = and i32 %8, 3
  %10 = shl i32 %9, 0
  %11 = load ptr, ptr %2, align 8, !tbaa !4
  %12 = getelementptr inbounds nuw %struct.Channel, ptr %11, i32 0, i32 4
  %13 = getelementptr inbounds [4 x %struct.Quantize], ptr %12, i64 0, i64 1
  %14 = getelementptr inbounds nuw %struct.Quantize, ptr %13, i32 0, i32 0
  %15 = load i32, ptr %14, align 4, !tbaa !18
  %16 = and i32 %15, 2
  %17 = shl i32 %16, 1
  %18 = add nsw i32 %10, %17
  %19 = load ptr, ptr %2, align 8, !tbaa !4
  %20 = getelementptr inbounds nuw %struct.Channel, ptr %19, i32 0, i32 4
  %21 = getelementptr inbounds [4 x %struct.Quantize], ptr %20, i64 0, i64 2
  %22 = getelementptr inbounds nuw %struct.Quantize, ptr %21, i32 0, i32 0
  %23 = load i32, ptr %22, align 4, !tbaa !18
  %24 = and i32 %23, 1
  %25 = shl i32 %24, 3
  %26 = add nsw i32 %18, %25
  store i32 %26, ptr %3, align 4, !tbaa !14
  %27 = load i32, ptr %3, align 4, !tbaa !14
  %28 = shl i32 %27, 8
  %29 = load ptr, ptr %2, align 8, !tbaa !4
  %30 = getelementptr inbounds nuw %struct.Channel, ptr %29, i32 0, i32 0
  %31 = load i32, ptr %30, align 4, !tbaa !8
  %32 = shl i32 %31, 4
  %33 = add i32 %28, %32
  %34 = load ptr, ptr %2, align 8, !tbaa !4
  %35 = getelementptr inbounds nuw %struct.Channel, ptr %34, i32 0, i32 0
  store i32 %33, ptr %35, align 4, !tbaa !8
  call void @llvm.lifetime.end.p0(i64 4, ptr %3) #5
  ret void
}

; Function Attrs: nounwind uwtable
define void @ff_aptx_generate_dither(ptr noundef %0) #0 {
  %2 = alloca ptr, align 8
  %3 = alloca i32, align 4
  %4 = alloca i64, align 8
  %5 = alloca i32, align 4
  store ptr %0, ptr %2, align 8, !tbaa !4
  call void @llvm.lifetime.start.p0(i64 4, ptr %3) #5
  call void @llvm.lifetime.start.p0(i64 8, ptr %4) #5
  call void @llvm.lifetime.start.p0(i64 4, ptr %5) #5
  %6 = load ptr, ptr %2, align 8, !tbaa !4
  call void @aptx_update_codeword_history(ptr noundef %6)
  %7 = load ptr, ptr %2, align 8, !tbaa !4
  %8 = getelementptr inbounds nuw %struct.Channel, ptr %7, i32 0, i32 0
  %9 = load i32, ptr %8, align 4, !tbaa !8
  %10 = ashr i32 %9, 7
  %11 = sext i32 %10 to i64
  %12 = mul nsw i64 5184443, %11
  store i64 %12, ptr %4, align 8, !tbaa !12
  %13 = load i64, ptr %4, align 8, !tbaa !12
  %14 = mul nsw i64 %13, 4
  %15 = load i64, ptr %4, align 8, !tbaa !12
  %16 = ashr i64 %15, 22
  %17 = add nsw i64 %14, %16
  %18 = trunc i64 %17 to i32
  store i32 %18, ptr %5, align 4, !tbaa !14
  store i32 0, ptr %3, align 4, !tbaa !14
  br label %19

19:                                               ; preds = %33, %1
  %20 = load i32, ptr %3, align 4, !tbaa !14
  %21 = icmp slt i32 %20, 4
  br i1 %21, label %22, label %36

22:                                               ; preds = %19
  %23 = load i32, ptr %5, align 4, !tbaa !14
  %24 = load i32, ptr %3, align 4, !tbaa !14
  %25 = mul nsw i32 5, %24
  %26 = sub nsw i32 23, %25
  %27 = shl i32 %23, %26
  %28 = load ptr, ptr %2, align 8, !tbaa !4
  %29 = getelementptr inbounds nuw %struct.Channel, ptr %28, i32 0, i32 2
  %30 = load i32, ptr %3, align 4, !tbaa !14
  %31 = sext i32 %30 to i64
  %32 = getelementptr inbounds [4 x i32], ptr %29, i64 0, i64 %31
  store i32 %27, ptr %32, align 4, !tbaa !14
  br label %33

33:                                               ; preds = %22
  %34 = load i32, ptr %3, align 4, !tbaa !14
  %35 = add nsw i32 %34, 1
  store i32 %35, ptr %3, align 4, !tbaa !14
  br label %19, !llvm.loop !15

36:                                               ; preds = %19
  %37 = load i32, ptr %5, align 4, !tbaa !14
  %38 = ashr i32 %37, 25
  %39 = and i32 %38, 1
  %40 = load ptr, ptr %2, align 8, !tbaa !4
  %41 = getelementptr inbounds nuw %struct.Channel, ptr %40, i32 0, i32 1
  store i32 %39, ptr %41, align 4, !tbaa !17
  call void @llvm.lifetime.end.p0(i64 4, ptr %5) #5
  call void @llvm.lifetime.end.p0(i64 8, ptr %4) #5
  call void @llvm.lifetime.end.p0(i64 4, ptr %3) #5
  ret void
}