; Function Attrs: nofree norecurse nosync nounwind memory(argmem: readwrite) uwtable
define void @ff_aptx_generate_dither(ptr noundef captures(none) %0) local_unnamed_addr #0 {
  %2 = getelementptr inbounds nuw i8, ptr %0, i64 816
  %3 = load i32, ptr %2, align 4, !tbaa !4
  %4 = and i32 %3, 3
  %5 = getelementptr inbounds nuw i8, ptr %0, i64 828
  %6 = load i32, ptr %5, align 4, !tbaa !4
  %7 = shl i32 %6, 1
  %8 = and i32 %7, 4
  %9 = or disjoint i32 %4, %8
  %10 = getelementptr inbounds nuw i8, ptr %0, i64 840
  %11 = load i32, ptr %10, align 4, !tbaa !4
  %12 = shl i32 %11, 3
  %13 = and i32 %12, 8
  %14 = or disjoint i32 %9, %13
  %15 = shl nuw nsw i32 %14, 8
  %16 = load i32, ptr %0, align 4, !tbaa !9
  %17 = shl i32 %16, 4
  %18 = add i32 %15, %17
  store i32 %18, ptr %0, align 4, !tbaa !9
  %19 = ashr i32 %18, 7
  %20 = sext i32 %19 to i64
  %21 = mul nsw i64 %20, 5184443
  %22 = mul nsw i64 %20, 20737772
  %23 = lshr i64 %21, 22
  %24 = add nsw i64 %23, %22
  %25 = trunc i64 %24 to i32
  %26 = getelementptr inbounds nuw i8, ptr %0, i64 8
  br label %27

27:                                               ; preds = %1, %27
  %indvars.iv = phi i64 [ 0, %1 ], [ %indvars.iv.next, %27 ]
  %28 = trunc i64 %indvars.iv to i32
  %29 = mul i32 %28, -5
  %30 = add i32 %29, 23
  %31 = shl i32 %25, %30
  %32 = getelementptr inbounds nuw [4 x i32], ptr %26, i64 0, i64 %indvars.iv
  store i32 %31, ptr %32, align 4, !tbaa !12
  %indvars.iv.next = add nuw nsw i64 %indvars.iv, 1
  %exitcond.not = icmp eq i64 %indvars.iv.next, 4
  br i1 %exitcond.not, label %33, label %27, !llvm.loop !13

33:                                               ; preds = %27
  %34 = lshr i32 %25, 25
  %35 = and i32 %34, 1
  %36 = getelementptr inbounds nuw i8, ptr %0, i64 4
  store i32 %35, ptr %36, align 4, !tbaa !15
  ret void
}